; Function Attrs: nounwind uwtable
define internal noundef i32 @mpegts_write_end(ptr noundef %0) #0 {
  %2 = getelementptr inbounds nuw i8, ptr %0, i64 32
  %3 = load ptr, ptr %2, align 8, !tbaa !66
  %.not = icmp eq ptr %3, null
  br i1 %.not, label %5, label %4

4:                                                ; preds = %1
  tail call fastcc void @mpegts_write_flush(ptr noundef nonnull %0)
  br label %5

5:                                                ; preds = %4, %1
  ret i32 0
}